Certificate:
    Data:
        Version: 3 (0x2)
        Serial Number: 2 (0x2)
        Signature Algorithm: sha256WithRSAEncryption
        Issuer: CN=172.17.8.100@1440619254
        Validity
            Not Before: Aug 26 20:00:55 2015 GMT
            Not After : Aug 23 20:00:55 2025 GMT
        Subject: CN=kubecfg
        Subject Public Key Info:
            Public Key Algorithm: rsaEncryption
            RSA Public Key: (2048 bit)
                Modulus (2048 bit):
                    00:ce:c8:20:8d:46:ab:f4:5f:8f:46:87:26:a2:82:
                    64:39:79:3c:1e:1f:41:b1:f8:36:22:f8:54:a5:0a:
                    16:95:5a:15:00:e8:18:9c:bd:e4:02:0a:2d:58:73:
                    81:87:63:19:43:11:29:bf:fb:b5:a4:e6:ff:31:9e:
                    3a:26:3a:62:56:ff:62:0d:44:e6:96:9a:ed:45:02:
                    e7:b0:d3:1c:f0:84:8b:99:fd:31:80:00:f6:f1:74:
                    d8:0d:41:08:67:04:68:55:19:dc:ec:e4:bf:9b:c0:
                    1c:e3:30:dd:81:a1:02:f6:0a:ec:7f:84:5f:31:fd:
                    48:02:ed:ee:8b:de:18:f9:44:9f:b7:99:5f:6e:9c:
                    8a:ef:55:aa:b3:82:42:13:c7:b7:43:56:62:be:a3:
                    ff:d9:6a:65:d7:eb:69:0a:de:e2:f8:a7:34:d4:45:
                    b1:44:9b:bd:6a:02:d1:6e:5b:86:a3:8a:f9:21:52:
                    13:11:ef:de:10:1e:7f:54:84:5c:7f:c1:74:a5:ab:
                    d4:0b:1e:68:70:6c:6f:b8:38:ed:c9:de:07:ce:e2:
                    cb:f0:92:5c:41:56:ec:59:f8:06:11:1c:34:47:40:
                    44:79:13:bd:1a:06:63:1c:6b:f1:e8:c3:43:03:1f:
                    87:23:96:4b:ee:4a:41:4b:de:71:24:bd:14:89:11:
                    fc:f3
                Exponent: 65537 (0x10001)
        X509v3 extensions:
            X509v3 Basic Constraints: 
                CA:FALSE
            X509v3 Subject Key Identifier: 
                77:B2:BB:73:61:14:35:B7:92:00:08:67:B1:27:BA:CE:2E:BD:F6:4B
            X509v3 Authority Key Identifier: 
                keyid:99:40:03:89:34:FA:02:CC:D3:09:2F:3F:ED:AE:C1:35:0A:4E:30:E9
                DirName:/CN=172.17.8.100@1440619254
                serial:B3:A9:DF:68:78:E2:34:A1

            X509v3 Extended Key Usage: 
                TLS Web Client Authentication
            X509v3 Key Usage: 
                Digital Signature
    Signature Algorithm: sha256WithRSAEncryption
        61:11:c7:99:29:7f:29:4a:d2:e6:c3:f1:96:1f:0d:c9:84:22:
        f1:f1:ff:b1:28:ad:65:69:0c:df:e9:a7:72:36:52:b1:87:2a:
        48:ab:fd:a8:5b:e7:ef:5b:8d:08:36:31:e9:28:74:38:14:b0:
        de:29:da:77:ad:0e:f8:1e:db:b3:94:85:c4:87:d5:e4:ce:84:
        06:a3:82:12:f9:de:22:30:d4:e6:c9:4d:db:96:95:19:8f:3d:
        c2:d2:ad:3a:16:b2:2f:9b:55:56:31:51:ec:00:a1:53:89:7d:
        b3:ac:ed:49:f2:02:0f:da:33:38:e9:5d:b6:99:88:84:f2:d6:
        b0:d8:2a:91:f8:bb:9e:b3:01:6b:ee:ef:fd:92:cc:d3:d9:8c:
        3f:87:2f:1f:6f:cb:01:3c:37:bf:ca:a4:8a:9c:43:1f:44:6e:
        83:c9:ef:87:2f:3f:b6:4a:31:70:57:b3:ae:bd:7c:96:bf:37:
        ba:7c:01:4d:08:8a:09:34:af:2f:6c:17:8d:c7:d3:b0:1c:57:
        d0:9f:48:e5:c0:35:a5:8d:b9:40:ee:68:2e:b3:03:83:7c:48:
        cb:79:1c:c4:55:67:41:8b:92:3d:d0:70:eb:09:3f:c5:36:dd:
        12:4c:f1:82:54:dd:32:8d:0d:da:8b:17:aa:25:3a:04:f3:f9:
        a0:30:05:87
-----BEGIN CERTIFICATE-----
MIIDUzCCAjugAwIBAgIBAjANBgkqhkiG9w0BAQsFADAiMSAwHgYDVQQDDBcxNzIu
MTcuOC4xMDBAMTQ0MDYxOTI1NDAeFw0xNTA4MjYyMDAwNTVaFw0yNTA4MjMyMDAw
NTVaMBIxEDAOBgNVBAMMB2t1YmVjZmcwggEiMA0GCSqGSIb3DQEBAQUAA4IBDwAw
ggEKAoIBAQDOyCCNRqv0X49GhyaigmQ5eTweH0Gx+DYi+FSlChaVWhUA6BicveQC
Ci1Yc4GHYxlDESm/+7Wk5v8xnjomOmJW/2INROaWmu1FAuew0xzwhIuZ/TGAAPbx
dNgNQQhnBGhVGdzs5L+bwBzjMN2BoQL2Cux/hF8x/UgC7e6L3hj5RJ+3mV9unIrv
VaqzgkITx7dDVmK+o//ZamXX62kK3uL4pzTURbFEm71qAtFuW4ajivkhUhMR794Q
Hn9UhFx/wXSlq9QLHmhwbG+4OO3J3gfO4svwklxBVuxZ+AYRHDRHQER5E70aBmMc
a/How0MDH4cjlkvuSkFL3nEkvRSJEfzzAgMBAAGjgaMwgaAwCQYDVR0TBAIwADAd
BgNVHQ4EFgQUd7K7c2EUNbeSAAhnsSe6zi699kswUgYDVR0jBEswSYAUmUADiTT6
AszTCS8/7a7BNQpOMOmhJqQkMCIxIDAeBgNVBAMMFzE3Mi4xNy44LjEwMEAxNDQw
NjE5MjU0ggkAs6nfaHjiNKEwEwYDVR0lBAwwCgYIKwYBBQUHAwIwCwYDVR0PBAQD
AgeAMA0GCSqGSIb3DQEBCwUAA4IBAQBhEceZKX8pStLmw/GWHw3JhCLx8f+xKK1l
aQzf6adyNlKxhypIq/2oW+fvW40INjHpKHQ4FLDeKdp3rQ74HtuzlIXEh9XkzoQG
o4IS+d4iMNTmyU3blpUZjz3C0q06FrIvm1VWMVHsAKFTiX2zrO1J8gIP2jM46V22
mYiE8taw2CqR+LueswFr7u/9kszT2Yw/hy8fb8sBPDe/yqSKnEMfRG6Dye+HLz+2
SjFwV7OuvXyWvze6fAFNCIoJNK8vbBeNx9OwHFfQn0jlwDWljblA7mguswODfEjL
eRzEVWdBi5I90HDrCT/FNt0STPGCVN0yjQ3aixeqJToE8/mgMAWH
-----END CERTIFICATE-----
